target datalayout = "e-m:e-p270:32:32-p271:32:32-p272:64:64-i64:64-i128:128-f80:128-n8:16:32:64-S128"
target triple = "x86_64-pc-linux-gnu"

%struct.expert_field = type { i32, i32 }

@hf_fcfzs_zonenmlen = internal global i32 0, align 4
@hf_fcfzs_zonename = internal global i32 0, align 4
@hf_fcfzs_mbrtype = internal global i32 0, align 4
@hf_fcfzs_mbrid_fcwwn = internal global i32 0, align 4
@hf_fcfzs_mbrid_fc = internal global i32 0, align 4
@hf_fcfzs_mbrid_uint = internal global i32 0, align 4
@ei_fcfzs_mbrid = internal global %struct.expert_field zeroinitializer, align 4

; Function Attrs: null_pointer_is_valid sspstrong uwtable
define internal void @dissect_fcfzs_arzm(ptr noundef %0, ptr noundef %1, ptr noundef %2, i1 noundef zeroext %3) #0 {
  %5 = alloca ptr, align 8
  %6 = alloca ptr, align 8
  %7 = alloca ptr, align 8
  %8 = alloca i8, align 1
  %9 = alloca i32, align 4
  %10 = alloca i32, align 4
  %11 = alloca i32, align 4
  %12 = alloca i32, align 4
  %13 = alloca i32, align 4
  %14 = alloca ptr, align 8
  store ptr %0, ptr %5, align 8
  store ptr %1, ptr %6, align 8
  store ptr %2, ptr %7, align 8
  %15 = zext i1 %3 to i8
  store i8 %15, ptr %8, align 1
  call void @llvm.lifetime.start.p0(i64 4, ptr %9) #5
  call void @llvm.lifetime.start.p0(i64 4, ptr %10) #5
  call void @llvm.lifetime.start.p0(i64 4, ptr %11) #5
  call void @llvm.lifetime.start.p0(i64 4, ptr %12) #5
  call void @llvm.lifetime.start.p0(i64 4, ptr %13) #5
  store i32 16, ptr %13, align 4
  call void @llvm.lifetime.start.p0(i64 8, ptr %14) #5
  %16 = load i8, ptr %8, align 1, !range !6, !noundef !7
  %17 = trunc i8 %16 to i1
  br i1 %17, label %18, label %96

18:                                               ; preds = %4
  %19 = load ptr, ptr %5, align 8
  %20 = load i32, ptr %13, align 4
  %21 = call zeroext i8 @tvb_get_uint8(ptr noundef %19, i32 noundef %20)
  %22 = zext i8 %21 to i32
  store i32 %22, ptr %11, align 4
  %23 = load ptr, ptr %7, align 8
  %24 = load i32, ptr @hf_fcfzs_zonenmlen, align 4
  %25 = load ptr, ptr %5, align 8
  %26 = load i32, ptr %13, align 4
  %27 = call ptr @proto_tree_add_item(ptr noundef %23, i32 noundef %24, ptr noundef %25, i32 noundef %26, i32 noundef 1, i32 noundef 0)
  %28 = load ptr, ptr %7, align 8
  %29 = load i32, ptr @hf_fcfzs_zonename, align 4
  %30 = load ptr, ptr %5, align 8
  %31 = load i32, ptr %13, align 4
  %32 = add i32 %31, 1
  %33 = load i32, ptr %11, align 4
  %34 = call ptr @proto_tree_add_item(ptr noundef %28, i32 noundef %29, ptr noundef %30, i32 noundef %32, i32 noundef %33, i32 noundef 0)
  %35 = load i32, ptr %11, align 4
  %36 = srem i32 %35, 4
  %37 = load i32, ptr %11, align 4
  %38 = add i32 %37, %36
  store i32 %38, ptr %11, align 4
  %39 = load ptr, ptr %5, align 8
  %40 = call i32 @tvb_reported_length(ptr noundef %39)
  %41 = load i32, ptr %13, align 4
  %42 = sub i32 %40, %41
  %43 = load i32, ptr %11, align 4
  %44 = sub i32 %42, %43
  store i32 %44, ptr %12, align 4
  %45 = load i32, ptr %12, align 4
  %46 = sdiv i32 %45, 12
  store i32 %46, ptr %9, align 4
  %47 = load i32, ptr %11, align 4
  %48 = load i32, ptr %13, align 4
  %49 = add i32 %48, %47
  store i32 %49, ptr %13, align 4
  store i32 0, ptr %10, align 4
  br label %50

50:                                               ; preds = %92, %18
  %51 = load i32, ptr %10, align 4
  %52 = load i32, ptr %9, align 4
  %53 = icmp slt i32 %51, %52
  br i1 %53, label %54, label %95

54:                                               ; preds = %50
  %55 = load ptr, ptr %7, align 8
  %56 = load i32, ptr @hf_fcfzs_mbrtype, align 4
  %57 = load ptr, ptr %5, align 8
  %58 = load i32, ptr %13, align 4
  %59 = call ptr @proto_tree_add_item(ptr noundef %55, i32 noundef %56, ptr noundef %57, i32 noundef %58, i32 noundef 1, i32 noundef 0)
  store ptr %59, ptr %14, align 8
  %60 = load ptr, ptr %5, align 8
  %61 = load i32, ptr %13, align 4
  %62 = call zeroext i8 @tvb_get_uint8(ptr noundef %60, i32 noundef %61)
  %63 = zext i8 %62 to i32
  switch i32 %63, label %85 [
    i32 1, label %64
    i32 4, label %64
    i32 2, label %71
    i32 3, label %78
  ]

64:                                               ; preds = %54, %54
  %65 = load ptr, ptr %7, align 8
  %66 = load i32, ptr @hf_fcfzs_mbrid_fcwwn, align 4
  %67 = load ptr, ptr %5, align 8
  %68 = load i32, ptr %13, align 4
  %69 = add i32 %68, 4
  %70 = call ptr @proto_tree_add_item(ptr noundef %65, i32 noundef %66, ptr noundef %67, i32 noundef %69, i32 noundef 8, i32 noundef 0)
  br label %89

71:                                               ; preds = %54
  %72 = load ptr, ptr %7, align 8
  %73 = load i32, ptr @hf_fcfzs_mbrid_uint, align 4
  %74 = load ptr, ptr %5, align 8
  %75 = load i32, ptr %13, align 4
  %76 = add i32 %75, 4
  %77 = call ptr @proto_tree_add_item(ptr noundef %72, i32 noundef %73, ptr noundef %74, i32 noundef %76, i32 noundef 3, i32 noundef 0)
  br label %89

78:                                               ; preds = %54
  %79 = load ptr, ptr %7, align 8
  %80 = load i32, ptr @hf_fcfzs_mbrid_fc, align 4
  %81 = load ptr, ptr %5, align 8
  %82 = load i32, ptr %13, align 4
  %83 = add i32 %82, 4
  %84 = call ptr @proto_tree_add_item(ptr noundef %79, i32 noundef %80, ptr noundef %81, i32 noundef %83, i32 noundef 3, i32 noundef 0)
  br label %89

85:                                               ; preds = %54
  %86 = load ptr, ptr %6, align 8
  %87 = load ptr, ptr %14, align 8
  %88 = call ptr @expert_add_info(ptr noundef %86, ptr noundef %87, ptr noundef @ei_fcfzs_mbrid)
  br label %89

89:                                               ; preds = %85, %78, %71, %64
  %90 = load i32, ptr %13, align 4
  %91 = add i32 %90, 12
  store i32 %91, ptr %13, align 4
  br label %92

92:                                               ; preds = %89
  %93 = load i32, ptr %10, align 4
  %94 = add i32 %93, 1
  store i32 %94, ptr %10, align 4
  br label %50, !llvm.loop !12

95:                                               ; preds = %50
  br label %96

96:                                               ; preds = %95, %4
  call void @llvm.lifetime.end.p0(i64 8, ptr %14) #5
  call void @llvm.lifetime.end.p0(i64 4, ptr %13) #5
  call void @llvm.lifetime.end.p0(i64 4, ptr %12) #5
  call void @llvm.lifetime.end.p0(i64 4, ptr %11) #5
  call void @llvm.lifetime.end.p0(i64 4, ptr %10) #5
  call void @llvm.lifetime.end.p0(i64 4, ptr %9) #5
  ret void
}