; Function Attrs: null_pointer_is_valid sspstrong uwtable
define internal fastcc void @dissect_fcfzs_arzm(ptr noundef %0, ptr noundef %1, ptr noundef %2, i1 noundef zeroext %3) unnamed_addr #0 {
  br i1 %3, label %5, label %.loopexit

5:                                                ; preds = %4
  %6 = tail call zeroext i8 @tvb_get_uint8(ptr noundef %0, i32 noundef 16)
  %7 = zext i8 %6 to i32
  %8 = load i32, ptr @hf_fcfzs_zonenmlen, align 4
  %9 = tail call ptr @proto_tree_add_item(ptr noundef %2, i32 noundef %8, ptr noundef %0, i32 noundef 16, i32 noundef 1, i32 noundef 0)
  %10 = load i32, ptr @hf_fcfzs_zonename, align 4
  %11 = tail call ptr @proto_tree_add_item(ptr noundef %2, i32 noundef %10, ptr noundef %0, i32 noundef 17, i32 noundef %7, i32 noundef 0)
  %12 = and i32 %7, 3
  %13 = add nuw nsw i32 %12, %7
  %14 = tail call i32 @tvb_reported_length(ptr noundef %0)
  %reass.sub = sub i32 %14, %13
  %15 = add i32 %reass.sub, -16
  %16 = sdiv i32 %15, 12
  %17 = icmp sgt i32 %15, 11
  br i1 %17, label %.lr.ph.preheader, label %.loopexit

.lr.ph.preheader:                                 ; preds = %5
  %18 = add nuw nsw i32 %13, 16
  br label %.lr.ph

.lr.ph:                                           ; preds = %.lr.ph.preheader, %36
  %.039 = phi i32 [ %38, %36 ], [ 0, %.lr.ph.preheader ]
  %.03738 = phi i32 [ %37, %36 ], [ %18, %.lr.ph.preheader ]
  %19 = load i32, ptr @hf_fcfzs_mbrtype, align 4
  %20 = tail call ptr @proto_tree_add_item(ptr noundef %2, i32 noundef %19, ptr noundef %0, i32 noundef %.03738, i32 noundef 1, i32 noundef 0)
  %21 = tail call zeroext i8 @tvb_get_uint8(ptr noundef %0, i32 noundef %.03738)
  switch i8 %21, label %34 [
    i8 1, label %22
    i8 4, label %22
    i8 2, label %26
    i8 3, label %30
  ]

22:                                               ; preds = %.lr.ph, %.lr.ph
  %23 = load i32, ptr @hf_fcfzs_mbrid_fcwwn, align 4
  %24 = add nuw i32 %.03738, 4
  %25 = tail call ptr @proto_tree_add_item(ptr noundef %2, i32 noundef %23, ptr noundef %0, i32 noundef %24, i32 noundef 8, i32 noundef 0)
  br label %36

26:                                               ; preds = %.lr.ph
  %27 = load i32, ptr @hf_fcfzs_mbrid_uint, align 4
  %28 = add nuw i32 %.03738, 4
  %29 = tail call ptr @proto_tree_add_item(ptr noundef %2, i32 noundef %27, ptr noundef %0, i32 noundef %28, i32 noundef 3, i32 noundef 0)
  br label %36

30:                                               ; preds = %.lr.ph
  %31 = load i32, ptr @hf_fcfzs_mbrid_fc, align 4
  %32 = add nuw i32 %.03738, 4
  %33 = tail call ptr @proto_tree_add_item(ptr noundef %2, i32 noundef %31, ptr noundef %0, i32 noundef %32, i32 noundef 3, i32 noundef 0)
  br label %36

34:                                               ; preds = %.lr.ph
  %35 = tail call ptr @expert_add_info(ptr noundef %1, ptr noundef %20, ptr noundef nonnull @ei_fcfzs_mbrid)
  br label %36

36:                                               ; preds = %34, %30, %26, %22
  %37 = add nuw i32 %.03738, 12
  %38 = add nuw nsw i32 %.039, 1
  %exitcond.not = icmp eq i32 %38, %16
  br i1 %exitcond.not, label %.loopexit, label %.lr.ph, !llvm.loop !10

.loopexit:                                        ; preds = %36, %5, %4
  ret void
}